; Function Attrs: nounwind uwtable
define range(i32 -21, 1) i32 @CVodeGetNumLinSolvSetups(ptr noundef readonly %0, ptr noundef writeonly captures(none) %1) local_unnamed_addr #0 {
  %3 = icmp eq ptr %0, null
  br i1 %3, label %4, label %5

4:                                                ; preds = %2
  tail call void (ptr, i32, i32, ptr, ptr, ptr, ...) @cvProcessError(ptr noundef null, i32 noundef -21, i32 noundef 1096, ptr noundef nonnull @__func__.CVodeGetNumLinSolvSetups, ptr noundef nonnull @.str, ptr noundef nonnull @.str.1) #7
  br label %8

5:                                                ; preds = %2
  %6 = getelementptr inbounds nuw i8, ptr %0, i64 904
  %7 = load i64, ptr %6, align 8
  store i64 %7, ptr %1, align 8
  br label %8

8:                                                ; preds = %5, %4
  %.0 = phi i32 [ -21, %4 ], [ 0, %5 ]
  ret i32 %.0
}